target datalayout = "e-m:e-p270:32:32-p271:32:32-p272:64:64-i64:64-i128:128-f80:128-n8:16:32:64-S128"
target triple = "x86_64-pc-linux-gnu"

@.str.11 = private unnamed_addr constant [19 x i8] c"invalid UTF-8 code\00", align 1

; Function Attrs: nounwind uwtable
define internal i32 @iter_codes(ptr noundef %0) #0 {
  %2 = alloca ptr, align 8
  %3 = alloca i32, align 4
  %4 = alloca ptr, align 8
  store ptr %0, ptr %2, align 8, !tbaa !4
  call void @llvm.lifetime.start.p0(i64 4, ptr %3) #4
  %5 = load ptr, ptr %2, align 8, !tbaa !4
  %6 = call i32 @lua_toboolean(ptr noundef %5, i32 noundef 2)
  store i32 %6, ptr %3, align 4, !tbaa !16
  call void @llvm.lifetime.start.p0(i64 8, ptr %4) #4
  %7 = load ptr, ptr %2, align 8, !tbaa !4
  %8 = call ptr @luaL_checklstring(ptr noundef %7, i32 noundef 1, ptr noundef null)
  store ptr %8, ptr %4, align 8, !tbaa !9
  %9 = load ptr, ptr %4, align 8, !tbaa !9
  %10 = load i8, ptr %9, align 1, !tbaa !15
  %11 = sext i8 %10 to i32
  %12 = and i32 %11, 192
  %13 = icmp eq i32 %12, 128
  %14 = xor i1 %13, true
  %15 = zext i1 %14 to i32
  %16 = icmp ne i32 %15, 0
  %17 = zext i1 %16 to i32
  %18 = sext i32 %17 to i64
  %19 = call i64 @llvm.expect.i64(i64 %18, i64 1)
  %20 = icmp ne i64 %19, 0
  br i1 %20, label %24, label %21

21:                                               ; preds = %1
  %22 = load ptr, ptr %2, align 8, !tbaa !4
  %23 = call i32 @luaL_argerror(ptr noundef %22, i32 noundef 1, ptr noundef @.str.11)
  br label %24

24:                                               ; preds = %21, %1
  %25 = load ptr, ptr %2, align 8, !tbaa !4
  %26 = load i32, ptr %3, align 4, !tbaa !16
  %27 = icmp ne i32 %26, 0
  %28 = select i1 %27, ptr @iter_auxlax, ptr @iter_auxstrict
  call void @lua_pushcclosure(ptr noundef %25, ptr noundef %28, i32 noundef 0)
  %29 = load ptr, ptr %2, align 8, !tbaa !4
  call void @lua_pushvalue(ptr noundef %29, i32 noundef 1)
  %30 = load ptr, ptr %2, align 8, !tbaa !4
  call void @lua_pushinteger(ptr noundef %30, i64 noundef 0)
  call void @llvm.lifetime.end.p0(i64 8, ptr %4) #4
  call void @llvm.lifetime.end.p0(i64 4, ptr %3) #4
  ret i32 3
}