; Function Attrs: nounwind uwtable
define internal noundef i32 @iter_codes(ptr noundef %0) #0 {
  %2 = tail call i32 @lua_toboolean(ptr noundef %0, i32 noundef 2) #3
  %3 = tail call ptr @luaL_checklstring(ptr noundef %0, i32 noundef 1, ptr noundef null) #3
  %4 = load i8, ptr %3, align 1, !tbaa !9
  %5 = icmp sgt i8 %4, -65
  br i1 %5, label %8, label %6, !prof !10

6:                                                ; preds = %1
  %7 = tail call i32 @luaL_argerror(ptr noundef %0, i32 noundef 1, ptr noundef nonnull @.str.11) #3
  br label %8

8:                                                ; preds = %6, %1
  %.not = icmp eq i32 %2, 0
  %9 = select i1 %.not, ptr @iter_auxstrict, ptr @iter_auxlax
  tail call void @lua_pushcclosure(ptr noundef %0, ptr noundef nonnull %9, i32 noundef 0) #3
  tail call void @lua_pushvalue(ptr noundef %0, i32 noundef 1) #3
  tail call void @lua_pushinteger(ptr noundef %0, i64 noundef 0) #3
  ret i32 3
}